target datalayout = "e-m:e-p270:32:32-p271:32:32-p272:64:64-i64:64-i128:128-f80:128-n8:16:32:64-S128"
target triple = "x86_64-pc-linux-gnu"

%struct.dt_pthread_mutex_t = type { %union.pthread_mutex_t }
%union.pthread_mutex_t = type { %struct.__pthread_mutex_s }
%struct.__pthread_mutex_s = type { i32, i32, i32, i32, i32, i16, i16, %struct.__pthread_internal_list }
%struct.__pthread_internal_list = type { ptr, ptr }
%struct.dt_mipmap_buffer_dsc = type <{ i32, i32, float, i64, i32, i32, [36 x i8] }>
%struct.dt_cache_entry_t = type { ptr, i64, i64, ptr, %union.pthread_rwlock_t, i32, i32 }
%union.pthread_rwlock_t = type { %struct.__pthread_rwlock_arch_t }
%struct.__pthread_rwlock_arch_t = type { i32, i32, i32, i32, i32, i32, i32, i32, i8, [7 x i8], i64, i32 }
%struct.dt_mipmap_cache_t = type { [11 x i32], [11 x i32], [11 x i64], %struct.dt_mipmap_cache_one_t, %struct.dt_mipmap_cache_one_t, %struct.dt_mipmap_cache_one_t, [4096 x i8] }
%struct.dt_mipmap_cache_one_t = type { %struct.dt_cache_t, i64, i64, i64, i64, i64 }
%struct.dt_cache_t = type { %struct.dt_pthread_mutex_t, i64, i64, i64, ptr, ptr, ptr, ptr, ptr, ptr }

@.str.11 = private unnamed_addr constant [15 x i8] c"%s.d/%d/%u.jpg\00", align 1
@.str.13 = private unnamed_addr constant [123 x i8] c"generated/home/dtcxzyw/WorkSpace/Projects/compilers/llvm-opt-benchmark/bench/darktable/darktable/src/common/mipmap_cache.c\00", align 1

; Function Attrs: nounwind uwtable
define internal void @_mipmap_cache_unlink_ondisk_thumbnail(ptr noundef %0, i32 noundef %1, i32 noundef %2) #0 {
  %4 = alloca ptr, align 8
  %5 = alloca i32, align 4
  %6 = alloca i32, align 4
  %7 = alloca ptr, align 8
  %8 = alloca [4096 x i8], align 16
  store ptr %0, ptr %4, align 8, !tbaa !49
  store i32 %1, ptr %5, align 4, !tbaa !43
  store i32 %2, ptr %6, align 4, !tbaa !43
  call void @llvm.lifetime.start.p0(i64 8, ptr %7) #12
  %9 = load ptr, ptr %4, align 8, !tbaa !49
  store ptr %9, ptr %7, align 8, !tbaa !50
  %10 = load ptr, ptr %7, align 8, !tbaa !50
  %11 = getelementptr inbounds nuw %struct.dt_mipmap_cache_t, ptr %10, i32 0, i32 6
  %12 = getelementptr inbounds [4096 x i8], ptr %11, i64 0, i64 0
  %13 = load i8, ptr %12, align 8, !tbaa !107
  %14 = icmp ne i8 %13, 0
  br i1 %14, label %15, label %25

15:                                               ; preds = %3
  call void @llvm.lifetime.start.p0(i64 4096, ptr %8) #12
  call void @llvm.memset.p0.i64(ptr align 16 %8, i8 0, i64 4096, i1 false)
  %16 = getelementptr inbounds [4096 x i8], ptr %8, i64 0, i64 0
  %17 = load ptr, ptr %7, align 8, !tbaa !50
  %18 = getelementptr inbounds nuw %struct.dt_mipmap_cache_t, ptr %17, i32 0, i32 6
  %19 = getelementptr inbounds [4096 x i8], ptr %18, i64 0, i64 0
  %20 = load i32, ptr %6, align 4, !tbaa !43
  %21 = load i32, ptr %5, align 4, !tbaa !43
  %22 = call i32 (ptr, i64, ptr, ...) @snprintf(ptr noundef %16, i64 noundef 4096, ptr noundef @.str.11, ptr noundef %19, i32 noundef %20, i32 noundef %21) #12
  %23 = getelementptr inbounds [4096 x i8], ptr %8, i64 0, i64 0
  %24 = call i32 @g_unlink(ptr noundef %23)
  call void @llvm.lifetime.end.p0(i64 4096, ptr %8) #12
  br label %25

25:                                               ; preds = %15, %3
  call void @llvm.lifetime.end.p0(i64 8, ptr %7) #12
  ret void
}

; Function Attrs: nounwind uwtable
define internal ptr @_get_cache(ptr noundef %0, i32 noundef %1) #0 {
  %3 = alloca ptr, align 8
  %4 = alloca ptr, align 8
  %5 = alloca i32, align 4
  store ptr %0, ptr %4, align 8, !tbaa !50
  store i32 %1, ptr %5, align 4, !tbaa !43
  %6 = load i32, ptr %5, align 4, !tbaa !43
  switch i32 %6, label %13 [
    i32 10, label %7
    i32 9, label %10
  ]

7:                                                ; preds = %2
  %8 = load ptr, ptr %4, align 8, !tbaa !50
  %9 = getelementptr inbounds nuw %struct.dt_mipmap_cache_t, ptr %8, i32 0, i32 5
  store ptr %9, ptr %3, align 8
  br label %16

10:                                               ; preds = %2
  %11 = load ptr, ptr %4, align 8, !tbaa !50
  %12 = getelementptr inbounds nuw %struct.dt_mipmap_cache_t, ptr %11, i32 0, i32 4
  store ptr %12, ptr %3, align 8
  br label %16

13:                                               ; preds = %2
  %14 = load ptr, ptr %4, align 8, !tbaa !50
  %15 = getelementptr inbounds nuw %struct.dt_mipmap_cache_t, ptr %14, i32 0, i32 3
  store ptr %15, ptr %3, align 8
  br label %16

16:                                               ; preds = %13, %10, %7
  %17 = load ptr, ptr %3, align 8
  ret ptr %17
}

; Function Attrs: inlinehint nounwind uwtable
define internal i32 @get_key(i32 noundef %0, i32 noundef %1) #4 {
  %3 = alloca i32, align 4
  %4 = alloca i32, align 4
  store i32 %0, ptr %3, align 4, !tbaa !43
  store i32 %1, ptr %4, align 4, !tbaa !43
  %5 = load i32, ptr %4, align 4, !tbaa !43
  %6 = shl i32 %5, 28
  %7 = load i32, ptr %3, align 4, !tbaa !43
  %8 = sub nsw i32 %7, 1
  %9 = and i32 %8, 268435455
  %10 = or i32 %6, %9
  ret i32 %10
}

; Function Attrs: nounwind uwtable
define void @dt_mipmap_cache_remove_at_size(ptr noundef %0, i32 noundef %1, i32 noundef %2) #0 {
  %4 = alloca ptr, align 8
  %5 = alloca i32, align 4
  %6 = alloca i32, align 4
  %7 = alloca i32, align 4
  %8 = alloca ptr, align 8
  %9 = alloca ptr, align 8
  store ptr %0, ptr %4, align 8, !tbaa !50
  store i32 %1, ptr %5, align 4, !tbaa !43
  store i32 %2, ptr %6, align 4, !tbaa !43
  %10 = load i32, ptr %6, align 4, !tbaa !43
  %11 = icmp ugt i32 %10, 8
  br i1 %11, label %15, label %12

12:                                               ; preds = %3
  %13 = load i32, ptr %6, align 4, !tbaa !43
  %14 = icmp ult i32 %13, 0
  br i1 %14, label %15, label %16

15:                                               ; preds = %12, %3
  br label %57

16:                                               ; preds = %12
  call void @llvm.lifetime.start.p0(i64 4, ptr %7) #12
  %17 = load i32, ptr %5, align 4, !tbaa !43
  %18 = load i32, ptr %6, align 4, !tbaa !43
  %19 = call i32 @get_key(i32 noundef %17, i32 noundef %18)
  store i32 %19, ptr %7, align 4, !tbaa !43
  call void @llvm.lifetime.start.p0(i64 8, ptr %8) #12
  %20 = load ptr, ptr %4, align 8, !tbaa !50
  %21 = load i32, ptr %6, align 4, !tbaa !43
  %22 = call ptr @_get_cache(ptr noundef %20, i32 noundef %21)
  %23 = getelementptr inbounds nuw %struct.dt_mipmap_cache_one_t, ptr %22, i32 0, i32 0
  %24 = load i32, ptr %7, align 4, !tbaa !43
  %25 = call ptr @dt_cache_testget(ptr noundef %23, i32 noundef %24, i8 noundef signext 119)
  store ptr %25, ptr %8, align 8, !tbaa !29
  %26 = load ptr, ptr %8, align 8, !tbaa !29
  %27 = icmp ne ptr %26, null
  br i1 %27, label %28, label %47

28:                                               ; preds = %16
  call void @llvm.lifetime.start.p0(i64 8, ptr %9) #12
  %29 = load ptr, ptr %8, align 8, !tbaa !29
  %30 = getelementptr inbounds nuw %struct.dt_cache_entry_t, ptr %29, i32 0, i32 0
  %31 = load ptr, ptr %30, align 8, !tbaa !30
  store ptr %31, ptr %9, align 8, !tbaa !17
  %32 = load ptr, ptr %9, align 8, !tbaa !17
  %33 = getelementptr inbounds nuw %struct.dt_mipmap_buffer_dsc, ptr %32, i32 0, i32 4
  %34 = load i32, ptr %33, align 4, !tbaa !48
  %35 = or i32 %34, 2
  store i32 %35, ptr %33, align 4, !tbaa !48
  %36 = load ptr, ptr %4, align 8, !tbaa !50
  %37 = load i32, ptr %6, align 4, !tbaa !43
  %38 = call ptr @_get_cache(ptr noundef %36, i32 noundef %37)
  %39 = getelementptr inbounds nuw %struct.dt_mipmap_cache_one_t, ptr %38, i32 0, i32 0
  %40 = load ptr, ptr %8, align 8, !tbaa !29
  call void @dt_cache_release_with_caller(ptr noundef %39, ptr noundef %40, ptr noundef @.str.13, i32 noundef 1216)
  %41 = load ptr, ptr %4, align 8, !tbaa !50
  %42 = load i32, ptr %6, align 4, !tbaa !43
  %43 = call ptr @_get_cache(ptr noundef %41, i32 noundef %42)
  %44 = getelementptr inbounds nuw %struct.dt_mipmap_cache_one_t, ptr %43, i32 0, i32 0
  %45 = load i32, ptr %7, align 4, !tbaa !43
  %46 = call i32 @dt_cache_remove(ptr noundef %44, i32 noundef %45)
  call void @llvm.lifetime.end.p0(i64 8, ptr %9) #12
  br label %56

47:                                               ; preds = %16
  %48 = load ptr, ptr %4, align 8, !tbaa !50
  %49 = load i32, ptr %6, align 4, !tbaa !43
  %50 = call ptr @_get_cache(ptr noundef %48, i32 noundef %49)
  %51 = getelementptr inbounds nuw %struct.dt_mipmap_cache_one_t, ptr %50, i32 0, i32 0
  %52 = getelementptr inbounds nuw %struct.dt_cache_t, ptr %51, i32 0, i32 9
  %53 = load ptr, ptr %52, align 8, !tbaa !208
  %54 = load i32, ptr %5, align 4, !tbaa !43
  %55 = load i32, ptr %6, align 4, !tbaa !43
  call void @_mipmap_cache_unlink_ondisk_thumbnail(ptr noundef %53, i32 noundef %54, i32 noundef %55)
  br label %56

56:                                               ; preds = %47, %28
  call void @llvm.lifetime.end.p0(i64 8, ptr %8) #12
  call void @llvm.lifetime.end.p0(i64 4, ptr %7) #12
  br label %57

57:                                               ; preds = %56, %15
  ret void
}