; Function Attrs: nounwind uwtable
define void @dt_mipmap_cache_remove_at_size(ptr noundef %0, i32 noundef %1, i32 noundef %2) local_unnamed_addr #3 {
  %4 = alloca [4096 x i8], align 16
  %5 = icmp ugt i32 %2, 8
  br i1 %5, label %_mipmap_cache_unlink_ondisk_thumbnail.exit, label %6

6:                                                ; preds = %3
  %7 = shl nuw i32 %2, 28
  %8 = add i32 %1, 268435455
  %9 = and i32 %8, 268435455
  %10 = or disjoint i32 %7, %9
  %11 = getelementptr inbounds nuw i8, ptr %0, i64 176
  %12 = tail call ptr @dt_cache_testget(ptr noundef nonnull %11, i32 noundef %10, i8 noundef signext 119) #19
  %.not = icmp eq ptr %12, null
  br i1 %.not, label %19, label %13

13:                                               ; preds = %6
  %14 = load ptr, ptr %12, align 8, !tbaa !23
  %15 = getelementptr inbounds nuw i8, ptr %14, i64 20
  %16 = load i32, ptr %15, align 4, !tbaa !39
  %17 = or i32 %16, 2
  store i32 %17, ptr %15, align 4, !tbaa !39
  tail call void @dt_cache_release_with_caller(ptr noundef nonnull %11, ptr noundef nonnull %12, ptr noundef nonnull @.str.13, i32 noundef 1216) #19
  %18 = tail call i32 @dt_cache_remove(ptr noundef nonnull %11, i32 noundef %10) #19
  br label %_mipmap_cache_unlink_ondisk_thumbnail.exit

19:                                               ; preds = %6
  %20 = getelementptr inbounds nuw i8, ptr %0, i64 280
  %21 = load ptr, ptr %20, align 8, !tbaa !193
  %22 = getelementptr inbounds nuw i8, ptr %21, i64 632
  %23 = load i8, ptr %22, align 8, !tbaa !74
  %.not.i = icmp eq i8 %23, 0
  br i1 %.not.i, label %_mipmap_cache_unlink_ondisk_thumbnail.exit, label %24

24:                                               ; preds = %19
  call void @llvm.lifetime.start.p0(i64 4096, ptr nonnull %4) #19
  call void @llvm.memset.p0.i64(ptr noundef nonnull align 16 dereferenceable(4096) %4, i8 0, i64 4096, i1 false)
  %25 = call i32 (ptr, i64, ptr, ...) @snprintf(ptr noundef nonnull dereferenceable(1) %4, i64 noundef 4096, ptr noundef nonnull @.str.11, ptr noundef nonnull %22, i32 noundef range(i32 0, 9) %2, i32 noundef %1) #19
  %26 = call i32 @g_unlink(ptr noundef nonnull %4) #19
  call void @llvm.lifetime.end.p0(i64 4096, ptr nonnull %4) #19
  br label %_mipmap_cache_unlink_ondisk_thumbnail.exit

_mipmap_cache_unlink_ondisk_thumbnail.exit:       ; preds = %24, %19, %13, %3
  ret void
}